; Function Attrs: mustprogress nofree norecurse nosync nounwind willreturn memory(read, inaccessiblemem: none) uwtable
define internal noundef ptr @"_ZZN4pkpy12add_module_cEPNS_2VMEEN5$_1048__invokeES1_NS_8ArgsViewE"(ptr nocapture noundef readonly %0, ptr nocapture readonly %1, ptr nocapture readnone %2) #16 align 2 {
  %4 = load ptr, ptr %1, align 8
  %5 = getelementptr inbounds i8, ptr %4, i64 24
  %6 = load ptr, ptr %5, align 8
  %7 = load i8, ptr %6, align 1
  %8 = trunc i8 %7 to i1
  %.in.v.i.i = select i1 %8, i64 264528, i64 264536
  %.in.i.i = getelementptr inbounds i8, ptr %0, i64 %.in.v.i.i
  %9 = load ptr, ptr %.in.i.i, align 8
  ret ptr %9
}